; Function Attrs: nounwind uwtable
define internal fastcc range(i32 0, 2) i32 @is_end_of_bre_subexp(ptr noundef %0, ptr noundef %1, ptr noundef readonly captures(none) %2, ptr noundef readonly captures(none) %3) unnamed_addr #2 {
  %5 = icmp eq ptr %0, %1
  br i1 %5, label %33, label %6

6:                                                ; preds = %4
  %7 = getelementptr inbounds nuw i8, ptr %2, i64 32
  %8 = load ptr, ptr %7, align 8, !tbaa !80
  %9 = tail call i32 %8(ptr noundef %0, ptr noundef %1) #25
  %10 = getelementptr inbounds nuw i8, ptr %3, i64 16
  %11 = load ptr, ptr %10, align 8, !tbaa !144
  %12 = getelementptr inbounds nuw i8, ptr %11, i64 16
  %13 = load i32, ptr %12, align 4, !tbaa !166
  %14 = icmp eq i32 %9, %13
  br i1 %14, label %15, label %32

15:                                               ; preds = %6
  %16 = getelementptr inbounds nuw i8, ptr %11, i64 4
  %17 = load i32, ptr %16, align 4, !tbaa !167
  %18 = and i32 %17, 1048576
  %.not = icmp eq i32 %18, 0
  br i1 %.not, label %19, label %32

19:                                               ; preds = %15
  %20 = load ptr, ptr %2, align 8, !tbaa !82
  %21 = tail call i32 %20(ptr noundef %0) #25
  %22 = sext i32 %21 to i64
  %23 = getelementptr inbounds i8, ptr %0, i64 %22
  %24 = icmp ult ptr %23, %1
  br i1 %24, label %25, label %32

25:                                               ; preds = %19
  %26 = load ptr, ptr %7, align 8, !tbaa !80
  %27 = tail call i32 %26(ptr noundef %23, ptr noundef nonnull %1) #25
  switch i32 %27, label %32 [
    i32 41, label %33
    i32 124, label %28
  ]

28:                                               ; preds = %25
  %29 = load ptr, ptr %10, align 8, !tbaa !144
  %30 = load i32, ptr %29, align 4, !tbaa !169
  %31 = and i32 %30, 2048
  %.not23 = icmp eq i32 %31, 0
  br i1 %.not23, label %32, label %33

32:                                               ; preds = %25, %19, %28, %15, %6
  br label %33

33:                                               ; preds = %28, %25, %4, %32
  %.0 = phi i32 [ 0, %32 ], [ 1, %4 ], [ 1, %25 ], [ 1, %28 ]
  ret i32 %.0
}